(dp0
S'files'
p1
(lp2
S'/workspace/tmp/research/1274888079.79'
p3
aS'/workspace/tmp/research/1274888079.8'
p4
aS'/workspace/tmp/research/1274888079.82'
p5
aS'/workspace/tmp/research/1274888079.84'
p6
aS'/workspace/tmp/research/1274888079.86'
p7
aS'/workspace/tmp/research/1274888079.88'
p8
aS'/workspace/tmp/research/1274888079.9'
p9
aS'/workspace/tmp/research/1274888079.92'
p10
aS'/workspace/tmp/research/1274888079.95'
p11
aS'/workspace/tmp/research/1274888079.96'
p12
aS'/workspace/tmp/research/1274888079.98'
p13
aS'/workspace/tmp/research/1274888080.01'
p14
aS'/workspace/tmp/research/1274888080.03'
p15
aS'/workspace/tmp/research/1274888080.04'
p16
aS'/workspace/tmp/research/1274888080.06'
p17
aS'/workspace/tmp/research/1274888080.08'
p18
aS'/workspace/tmp/research/1274888080.1'
p19
aS'/workspace/tmp/research/1274888080.12'
p20
aS'/workspace/tmp/research/1274888080.13'
p21
aS'/workspace/tmp/research/1274888080.14'
p22
aS'/workspace/tmp/research/1274888080.16'
p23
aS'/workspace/tmp/research/1274888080.17'
p24
aS'/workspace/tmp/research/1274888080.18'
p25
aS'/workspace/tmp/research/1274888080.2'
p26
aS'/workspace/tmp/research/1274888080.21'
p27
aS'/workspace/tmp/research/1274888080.23'
p28
aS'/workspace/tmp/research/1274888080.25'
p29
aS'/workspace/tmp/research/1274888080.27'
p30
aS'/workspace/tmp/research/1274888080.28'
p31
aS'/workspace/tmp/research/1274888080.3'
p32
aS'/workspace/tmp/research/1274888080.32'
p33
aS'/workspace/tmp/research/1274888080.34'
p34
aS'/workspace/tmp/research/1274888080.35'
p35
aS'/workspace/tmp/research/1274888080.36'
p36
aS'/workspace/tmp/research/1274888080.38'
p37
aS'/workspace/tmp/research/1274888080.4'
p38
aS'/workspace/tmp/research/1274888080.41'
p39
aS'/workspace/tmp/research/1274888080.43'
p40
aS'/workspace/tmp/research/1274888080.45'
p41
aS'/workspace/tmp/research/1274888080.46'
p42
aS'/workspace/tmp/research/1274888080.48'
p43
aS'/workspace/tmp/research/1274888080.49'
p44
aS'/workspace/tmp/research/1274888080.5'
p45
aS'/workspace/tmp/research/1274888080.52'
p46
aS'/workspace/tmp/research/1274888080.53'
p47
aS'/workspace/tmp/research/1274888080.54'
p48
aS'/workspace/tmp/research/1274888080.56'
p49
aS'/workspace/tmp/research/1274888080.58'
p50
aS'/workspace/tmp/research/1274888080.59'
p51
aS'/workspace/tmp/research/1274888080.61'
p52
aS'/workspace/tmp/research/1274888080.62'
p53
aS'/workspace/tmp/research/1274888080.64'
p54
aS'/workspace/tmp/research/1274888080.65'
p55
aS'/workspace/tmp/research/1274888080.66'
p56
aS'/workspace/tmp/research/1274888080.68'
p57
aS'/workspace/tmp/research/1274888080.69'
p58
aS'/workspace/tmp/research/1274888080.71'
p59
aS'/workspace/tmp/research/1274888080.73'
p60
aS'/workspace/tmp/research/1274888080.75'
p61
aS'/workspace/tmp/research/1274888080.77'
p62
aS'/workspace/tmp/research/1274888080.79'
p63
aS'/workspace/tmp/research/1274888080.81'
p64
aS'/workspace/tmp/research/1274888080.83'
p65
aS'/workspace/tmp/research/1274888080.85'
p66
aS'/workspace/tmp/research/1274888080.87'
p67
aS'/workspace/tmp/research/1274888080.88'
p68
aS'/workspace/tmp/research/1274888080.9'
p69
aS'/workspace/tmp/research/1274888080.91'
p70
aS'/workspace/tmp/research/1274888080.93'
p71
aS'/workspace/tmp/research/1274888080.94'
p72
aS'/workspace/tmp/research/1274888080.96'
p73
aS'/workspace/tmp/research/1274888080.98'
p74
aS'/workspace/tmp/research/1274888081.0'
p75
aS'/workspace/tmp/research/1274888081.03'
p76
aS'/workspace/tmp/research/1274888081.05'
p77
aS'/workspace/tmp/research/1274888081.06'
p78
aS'/workspace/tmp/research/1274888081.07'
p79
aS'/workspace/tmp/research/1274888081.09'
p80
aS'/workspace/tmp/research/1274888081.1'
p81
aS'/workspace/tmp/research/1274888081.12'
p82
aS'/workspace/tmp/research/1274888081.13'
p83
aS'/workspace/tmp/research/1274888081.14'
p84
aS'/workspace/tmp/research/1274888081.16'
p85
aS'/workspace/tmp/research/1274888081.17'
p86
aS'/workspace/tmp/research/1274888081.19'
p87
aS'/workspace/tmp/research/1274888081.22'
p88
aS'/workspace/tmp/research/1274888081.24'
p89
aS'/workspace/tmp/research/1274888081.25'
p90
aS'/workspace/tmp/research/1274888081.27'
p91
aS'/workspace/tmp/research/1274888081.29'
p92
aS'/workspace/tmp/research/1274888081.31'
p93
aS'/workspace/tmp/research/1274888081.33'
p94
aS'/workspace/tmp/research/1274888081.35'
p95
aS'/workspace/tmp/research/1274888081.37'
p96
aS'/workspace/tmp/research/1274888081.38'
p97
aS'/workspace/tmp/research/1274888081.4'
p98
aS'/workspace/tmp/research/1274888081.41'
p99
aS'/workspace/tmp/research/1274888081.42'
p100
aS'/workspace/tmp/research/1274888081.44'
p101
aS'/workspace/tmp/research/1274888081.46'
p102
aS'/workspace/tmp/research/1274888081.48'
p103
aS'/workspace/tmp/research/1274888081.5'
p104
aS'/workspace/tmp/research/1274888081.51'
p105
aS'/workspace/tmp/research/1274888081.52'
p106
aS'/workspace/tmp/research/1274888081.53'
p107
aS'/workspace/tmp/research/1274888081.55'
p108
aS'/workspace/tmp/research/1274888081.56'
p109
aS'/workspace/tmp/research/1274888081.58'
p110
aS'/workspace/tmp/research/1274888081.59'
p111
aS'/workspace/tmp/research/1274888081.6'
p112
aS'/workspace/tmp/research/1274888081.62'
p113
aS'/workspace/tmp/research/1274888081.64'
p114
aS'/workspace/tmp/research/1274888081.66'
p115
aS'/workspace/tmp/research/1274888081.68'
p116
aS'/workspace/tmp/research/1274888081.69'
p117
aS'/workspace/tmp/research/1274888081.7'
p118
aS'/workspace/tmp/research/1274888081.71'
p119
aS'/workspace/tmp/research/1274888081.73'
p120
aS'/workspace/tmp/research/1274888081.74'
p121
aS'/workspace/tmp/research/1274888081.76'
p122
aS'/workspace/tmp/research/1274888081.78'
p123
aS'/workspace/tmp/research/1274888081.79'
p124
aS'/workspace/tmp/research/1274888081.81'
p125
aS'/workspace/tmp/research/1274888081.83'
p126
aS'/workspace/tmp/research/1274888081.84'
p127
aS'/workspace/tmp/research/1274888081.85'
p128
aS'/workspace/tmp/research/1274888081.88'
p129
aS'/workspace/tmp/research/1274888081.89'
p130
aS'/workspace/tmp/research/1274888081.91'
p131
aS'/workspace/tmp/research/1274888081.92'
p132
aS'/workspace/tmp/research/1274888081.93'
p133
aS'/workspace/tmp/research/1274888081.95'
p134
aS'/workspace/tmp/research/1274888081.97'
p135
aS'/workspace/tmp/research/1274888081.98'
p136
aS'/workspace/tmp/research/1274888082.01'
p137
aS'/workspace/tmp/research/1274888082.03'
p138
aS'/workspace/tmp/research/1274888082.04'
p139
aS'/workspace/tmp/research/1274888082.05'
p140
aS'/workspace/tmp/research/1274888082.07'
p141
aS'/workspace/tmp/research/1274888082.09'
p142
aS'/workspace/tmp/research/1274888082.1'
p143
aS'/workspace/tmp/research/1274888082.11'
p144
aS'/workspace/tmp/research/1274888082.13'
p145
aS'/workspace/tmp/research/1274888082.15'
p146
aS'/workspace/tmp/research/1274888082.16'
p147
aS'/workspace/tmp/research/1274888082.18'
p148
aS'/workspace/tmp/research/1274888082.19'
p149
aS'/workspace/tmp/research/1274888082.21'
p150
aS'/workspace/tmp/research/1274888082.22'
p151
aS'/workspace/tmp/research/1274888082.23'
p152
aS'/workspace/tmp/research/1274888082.25'
p153
aS'/workspace/tmp/research/1274888082.27'
p154
aS'/workspace/tmp/research/1274888082.28'
p155
aS'/workspace/tmp/research/1274888082.29'
p156
aS'/workspace/tmp/research/1274888082.31'
p157
aS'/workspace/tmp/research/1274888082.32'
p158
aS'/workspace/tmp/research/1274888082.33'
p159
aS'/workspace/tmp/research/1274888082.35'
p160
aS'/workspace/tmp/research/1274888082.36'
p161
aS'/workspace/tmp/research/1274888082.38'
p162
aS'/workspace/tmp/research/1274888082.39'
p163
aS'/workspace/tmp/research/1274888082.41'
p164
aS'/workspace/tmp/research/1274888082.42'
p165
aS'/workspace/tmp/research/1274888082.44'
p166
aS'/workspace/tmp/research/1274888082.45'
p167
aS'/workspace/tmp/research/1274888082.47'
p168
aS'/workspace/tmp/research/1274888082.49'
p169
aS'/workspace/tmp/research/1274888082.5'
p170
aS'/workspace/tmp/research/1274888082.51'
p171
aS'/workspace/tmp/research/1274888082.53'
p172
aS'/workspace/tmp/research/1274888082.54'
p173
aS'/workspace/tmp/research/1274888082.56'
p174
aS'/workspace/tmp/research/1274888082.58'
p175
aS'/workspace/tmp/research/1274888082.59'
p176
aS'/workspace/tmp/research/1274888082.6'
p177
aS'/workspace/tmp/research/1274888082.62'
p178
aS'/workspace/tmp/research/1274888082.63'
p179
aS'/workspace/tmp/research/1274888082.65'
p180
aS'/workspace/tmp/research/1274888082.66'
p181
aS'/workspace/tmp/research/1274888082.68'
p182
aS'/workspace/tmp/research/1274888082.69'
p183
aS'/workspace/tmp/research/1274888082.71'
p184
aS'/workspace/tmp/research/1274888082.72'
p185
aS'/workspace/tmp/research/1274888082.74'
p186
aS'/workspace/tmp/research/1274888082.76'
p187
aS'/workspace/tmp/research/1274888082.78'
p188
aS'/workspace/tmp/research/1274888082.79'
p189
aS'/workspace/tmp/research/1274888082.81'
p190
aS'/workspace/tmp/research/1274888082.83'
p191
aS'/workspace/tmp/research/1274888082.84'
p192
aS'/workspace/tmp/research/1274888082.86'
p193
aS'/workspace/tmp/research/1274888082.88'
p194
aS'/workspace/tmp/research/1274888082.9'
p195
aS'/workspace/tmp/research/1274888082.92'
p196
aS'/workspace/tmp/research/1274888082.94'
p197
aS'/workspace/tmp/research/1274888082.95'
p198
aS'/workspace/tmp/research/1274888082.97'
p199
aS'/workspace/tmp/research/1274888082.98'
p200
aS'/workspace/tmp/research/1274888083.0'
p201
aS'/workspace/tmp/research/1274888083.01'
p202
aS'/workspace/tmp/research/1274888083.03'
p203
aS'/workspace/tmp/research/1274888083.05'
p204
aS'/workspace/tmp/research/1274888083.07'
p205
aS'/workspace/tmp/research/1274888083.08'
p206
aS'/workspace/tmp/research/1274888083.1'
p207
aS'/workspace/tmp/research/1274888083.11'
p208
aS'/workspace/tmp/research/1274888083.13'
p209
aS'/workspace/tmp/research/1274888083.15'
p210
aS'/workspace/tmp/research/1274888083.17'
p211
aS'/workspace/tmp/research/1274888083.19'
p212
aS'/workspace/tmp/research/1274888083.21'
p213
aS'/workspace/tmp/research/1274888083.22'
p214
aS'/workspace/tmp/research/1274888083.23'
p215
aS'/workspace/tmp/research/1274888083.25'
p216
aS'/workspace/tmp/research/1274888083.27'
p217
aS'/workspace/tmp/research/1274888083.28'
p218
aS'/workspace/tmp/research/1274888083.29'
p219
aS'/workspace/tmp/research/1274888083.31'
p220
aS'/workspace/tmp/research/1274888083.32'
p221
aS'/workspace/tmp/research/1274888083.34'
p222
aS'/workspace/tmp/research/1274888083.35'
p223
aS'/workspace/tmp/research/1274888083.37'
p224
aS'/workspace/tmp/research/1274888083.38'
p225
aS'/workspace/tmp/research/1274888083.4'
p226
aS'/workspace/tmp/research/1274888083.42'
p227
aS'/workspace/tmp/research/1274888083.43'
p228
aS'/workspace/tmp/research/1274888083.44'
p229
aS'/workspace/tmp/research/1274888083.46'
p230
aS'/workspace/tmp/research/1274888083.47'
p231
aS'/workspace/tmp/research/1274888083.49'
p232
aS'/workspace/tmp/research/1274888083.5'
p233
aS'/workspace/tmp/research/1274888083.52'
p234
aS'/workspace/tmp/research/1274888083.53'
p235
aS'/workspace/tmp/research/1274888083.55'
p236
aS'/workspace/tmp/research/1274888083.57'
p237
aS'/workspace/tmp/research/1274888083.58'
p238
aS'/workspace/tmp/research/1274888083.59'
p239
aS'/workspace/tmp/research/1274888083.61'
p240
aS'/workspace/tmp/research/1274888083.62'
p241
aS'/workspace/tmp/research/1274888083.64'
p242
aS'/workspace/tmp/research/1274888083.65'
p243
aS'/workspace/tmp/research/1274888083.67'
p244
aS'/workspace/tmp/research/1274888083.69'
p245
aS'/workspace/tmp/research/1274888083.7'
p246
aS'/workspace/tmp/research/1274888083.71'
p247
aS'/workspace/tmp/research/1274888083.74'
p248
aS'/workspace/tmp/research/1274888083.76'
p249
aS'/workspace/tmp/research/1274888083.77'
p250
aS'/workspace/tmp/research/1274888083.8'
p251
aS'/workspace/tmp/research/1274888083.81'
p252
aS'/workspace/tmp/research/1274888083.82'
p253
aS'/workspace/tmp/research/1274888083.84'
p254
aS'/workspace/tmp/research/1274888083.86'
p255
aS'/workspace/tmp/research/1274888083.88'
p256
aS'/workspace/tmp/research/1274888083.9'
p257
aS'/workspace/tmp/research/1274888083.92'
p258
aS'/workspace/tmp/research/1274888083.93'
p259
aS'/workspace/tmp/research/1274888083.95'
p260
aS'/workspace/tmp/research/1274888083.97'
p261
aS'/workspace/tmp/research/1274888083.99'
p262
aS'/workspace/tmp/research/1274888084.01'
p263
aS'/workspace/tmp/research/1274888084.02'
p264
aS'/workspace/tmp/research/1274888084.04'
p265
aS'/workspace/tmp/research/1274888084.06'
p266
aS'/workspace/tmp/research/1274888084.07'
p267
aS'/workspace/tmp/research/1274888084.08'
p268
aS'/workspace/tmp/research/1274888084.1'
p269
aS'/workspace/tmp/research/1274888084.12'
p270
aS'/workspace/tmp/research/1274888084.13'
p271
aS'/workspace/tmp/research/1274888084.14'
p272
aS'/workspace/tmp/research/1274888084.16'
p273
aS'/workspace/tmp/research/1274888084.18'
p274
aS'/workspace/tmp/research/1274888084.2'
p275
aS'/workspace/tmp/research/1274888084.21'
p276
aS'/workspace/tmp/research/1274888084.22'
p277
aS'/workspace/tmp/research/1274888084.24'
p278
aS'/workspace/tmp/research/1274888084.25'
p279
aS'/workspace/tmp/research/1274888084.26'
p280
aS'/workspace/tmp/research/1274888084.28'
p281
aS'/workspace/tmp/research/1274888084.3'
p282
aS'/workspace/tmp/research/1274888084.31'
p283
aS'/workspace/tmp/research/1274888084.32'
p284
aS'/workspace/tmp/research/1274888084.34'
p285
aS'/workspace/tmp/research/1274888084.35'
p286
aS'/workspace/tmp/research/1274888084.38'
p287
aS'/workspace/tmp/research/1274888084.39'
p288
aS'/workspace/tmp/research/1274888084.41'
p289
aS'/workspace/tmp/research/1274888084.42'
p290
aS'/workspace/tmp/research/1274888084.45'
p291
aS'/workspace/tmp/research/1274888084.47'
p292
aS'/workspace/tmp/research/1274888084.48'
p293
aS'/workspace/tmp/research/1274888084.5'
p294
aS'/workspace/tmp/research/1274888084.51'
p295
aS'/workspace/tmp/research/1274888084.52'
p296
aS'/workspace/tmp/research/1274888084.54'
p297
aS'/workspace/tmp/research/1274888084.55'
p298
aS'/workspace/tmp/research/1274888084.57'
p299
aS'/workspace/tmp/research/1274888084.58'
p300
aS'/workspace/tmp/research/1274888084.6'
p301
aS'/workspace/tmp/research/1274888084.61'
p302
aS'/workspace/tmp/research/1274888084.63'
p303
aS'/workspace/tmp/research/1274888084.64'
p304
aS'/workspace/tmp/research/1274888084.66'
p305
aS'/workspace/tmp/research/1274888084.67'
p306
aS'/workspace/tmp/research/1274888084.69'
p307
aS'/workspace/tmp/research/1274888084.71'
p308
aS'/workspace/tmp/research/1274888084.73'
p309
aS'/workspace/tmp/research/1274888084.74'
p310
aS'/workspace/tmp/research/1274888084.75'
p311
aS'/workspace/tmp/research/1274888084.77'
p312
aS'/workspace/tmp/research/1274888084.78'
p313
aS'/workspace/tmp/research/1274888084.8'
p314
aS'/workspace/tmp/research/1274888084.82'
p315
aS'/workspace/tmp/research/1274888084.84'
p316
aS'/workspace/tmp/research/1274888084.86'
p317
aS'/workspace/tmp/research/1274888084.88'
p318
aS'/workspace/tmp/research/1274888084.89'
p319
aS'/workspace/tmp/research/1274888084.9'
p320
aS'/workspace/tmp/research/1274888084.91'
p321
aS'/workspace/tmp/research/1274888084.93'
p322
aS'/workspace/tmp/research/1274888084.94'
p323
aS'/workspace/tmp/research/1274888084.96'
p324
aS'/workspace/tmp/research/1274888084.97'
p325
aS'/workspace/tmp/research/1274888084.99'
p326
aS'/workspace/tmp/research/1274888085.01'
p327
aS'/workspace/tmp/research/1274888085.03'
p328
aS'/workspace/tmp/research/1274888085.05'
p329
aS'/workspace/tmp/research/1274888085.07'
p330
aS'/workspace/tmp/research/1274888085.09'
p331
aS'/workspace/tmp/research/1274888085.11'
p332
aS'/workspace/tmp/research/1274888085.13'
p333
aS'/workspace/tmp/research/1274888085.15'
p334
aS'/workspace/tmp/research/1274888085.17'
p335
aS'/workspace/tmp/research/1274888085.18'
p336
aS'/workspace/tmp/research/1274888085.19'
p337
aS'/workspace/tmp/research/1274888085.2'
p338
aS'/workspace/tmp/research/1274888085.22'
p339
aS'/workspace/tmp/research/1274888085.23'
p340
aS'/workspace/tmp/research/1274888085.25'
p341
aS'/workspace/tmp/research/1274888085.27'
p342
aS'/workspace/tmp/research/1274888085.28'
p343
aS'/workspace/tmp/research/1274888085.29'
p344
aS'/workspace/tmp/research/1274888085.3'
p345
aS'/workspace/tmp/research/1274888085.32'
p346
aS'/workspace/tmp/research/1274888085.33'
p347
aS'/workspace/tmp/research/1274888085.35'
p348
aS'/workspace/tmp/research/1274888085.36'
p349
aS'/workspace/tmp/research/1274888085.37'
p350
aS'/workspace/tmp/research/1274888085.39'
p351
aS'/workspace/tmp/research/1274888085.4'
p352
aS'/workspace/tmp/research/1274888085.41'
p353
aS'/workspace/tmp/research/1274888085.42'
p354
aS'/workspace/tmp/research/1274888085.44'
p355
aS'/workspace/tmp/research/1274888085.45'
p356
aS'/workspace/tmp/research/1274888085.47'
p357
aS'/workspace/tmp/research/1274888085.49'
p358
aS'/workspace/tmp/research/1274888085.51'
p359
aS'/workspace/tmp/research/1274888085.52'
p360
aS'/workspace/tmp/research/1274888085.53'
p361
aS'/workspace/tmp/research/1274888085.55'
p362
aS'/workspace/tmp/research/1274888085.57'
p363
aS'/workspace/tmp/research/1274888085.59'
p364
aS'/workspace/tmp/research/1274888085.6'
p365
aS'/workspace/tmp/research/1274888085.61'
p366
aS'/workspace/tmp/research/1274888085.63'
p367
aS'/workspace/tmp/research/1274888085.64'
p368
aS'/workspace/tmp/research/1274888085.66'
p369
aS'/workspace/tmp/research/1274888085.68'
p370
aS'/workspace/tmp/research/1274888085.7'
p371
aS'/workspace/tmp/research/1274888085.71'
p372
aS'/workspace/tmp/research/1274888085.73'
p373
aS'/workspace/tmp/research/1274888085.75'
p374
aS'/workspace/tmp/research/1274888085.76'
p375
aS'/workspace/tmp/research/1274888085.77'
p376
aS'/workspace/tmp/research/1274888085.8'
p377
aS'/workspace/tmp/research/1274888085.82'
p378
aS'/workspace/tmp/research/1274888085.84'
p379
aS'/workspace/tmp/research/1274888085.86'
p380
aS'/workspace/tmp/research/1274888085.88'
p381
aS'/workspace/tmp/research/1274888085.89'
p382
aS'/workspace/tmp/research/1274888085.92'
p383
aS'/workspace/tmp/research/1274888085.94'
p384
aS'/workspace/tmp/research/1274888085.95'
p385
aS'/workspace/tmp/research/1274888085.97'
p386
aS'/workspace/tmp/research/1274888085.98'
p387
aS'/workspace/tmp/research/1274888086.01'
p388
aS'/workspace/tmp/research/1274888086.03'
p389
aS'/workspace/tmp/research/1274888086.05'
p390
aS'/workspace/tmp/research/1274888086.06'
p391
aS'/workspace/tmp/research/1274888086.08'
p392
aS'/workspace/tmp/research/1274888086.1'
p393
aS'/workspace/tmp/research/1274888086.12'
p394
aS'/workspace/tmp/research/1274888086.14'
p395
aS'/workspace/tmp/research/1274888086.15'
p396
aS'/workspace/tmp/research/1274888086.17'
p397
aS'/workspace/tmp/research/1274888086.19'
p398
aS'/workspace/tmp/research/1274888086.21'
p399
aS'/workspace/tmp/research/1274888086.22'
p400
aS'/workspace/tmp/research/1274888086.24'
p401
aS'/workspace/tmp/research/1274888086.26'
p402
aS'/workspace/tmp/research/1274888086.27'
p403
aS'/workspace/tmp/research/1274888086.29'
p404
aS'/workspace/tmp/research/1274888086.3'
p405
aS'/workspace/tmp/research/1274888086.32'
p406
aS'/workspace/tmp/research/1274888086.34'
p407
aS'/workspace/tmp/research/1274888086.35'
p408
aS'/workspace/tmp/research/1274888086.36'
p409
aS'/workspace/tmp/research/1274888086.38'
p410
aS'/workspace/tmp/research/1274888086.4'
p411
aS'/workspace/tmp/research/1274888086.41'
p412
aS'/workspace/tmp/research/1274888086.42'
p413
aS'/workspace/tmp/research/1274888086.44'
p414
aS'/workspace/tmp/research/1274888086.45'
p415
aS'/workspace/tmp/research/1274888086.47'
p416
aS'/workspace/tmp/research/1274888086.48'
p417
aS'/workspace/tmp/research/1274888086.5'
p418
aS'/workspace/tmp/research/1274888086.52'
p419
aS'/workspace/tmp/research/1274888086.53'
p420
aS'/workspace/tmp/research/1274888086.55'
p421
aS'/workspace/tmp/research/1274888086.57'
p422
aS'/workspace/tmp/research/1274888086.58'
p423
aS'/workspace/tmp/research/1274888086.6'
p424
aS'/workspace/tmp/research/1274888086.62'
p425
aS'/workspace/tmp/research/1274888086.63'
p426
aS'/workspace/tmp/research/1274888086.65'
p427
aS'/workspace/tmp/research/1274888086.67'
p428
aS'/workspace/tmp/research/1274888086.68'
p429
aS'/workspace/tmp/research/1274888086.7'
p430
aS'/workspace/tmp/research/1274888086.72'
p431
aS'/workspace/tmp/research/1274888086.74'
p432
aS'/workspace/tmp/research/1274888086.75'
p433
aS'/workspace/tmp/research/1274888086.77'
p434
aS'/workspace/tmp/research/1274888086.79'
p435
aS'/workspace/tmp/research/1274888086.8'
p436
aS'/workspace/tmp/research/1274888086.82'
p437
aS'/workspace/tmp/research/1274888086.84'
p438
aS'/workspace/tmp/research/1274888086.86'
p439
aS'/workspace/tmp/research/1274888086.87'
p440
aS'/workspace/tmp/research/1274888086.89'
p441
aS'/workspace/tmp/research/1274888086.9'
p442
aS'/workspace/tmp/research/1274888086.92'
p443
aS'/workspace/tmp/research/1274888086.93'
p444
aS'/workspace/tmp/research/1274888086.95'
p445
aS'/workspace/tmp/research/1274888086.96'
p446
aS'/workspace/tmp/research/1274888086.98'
p447
aS'/workspace/tmp/research/1274888087.0'
p448
aS'/workspace/tmp/research/1274888087.01'
p449
aS'/workspace/tmp/research/1274888087.03'
p450
aS'/workspace/tmp/research/1274888087.05'
p451
aS'/workspace/tmp/research/1274888087.07'
p452
aS'/workspace/tmp/research/1274888087.09'
p453
aS'/workspace/tmp/research/1274888087.11'
p454
aS'/workspace/tmp/research/1274888087.12'
p455
aS'/workspace/tmp/research/1274888087.13'
p456
aS'/workspace/tmp/research/1274888087.15'
p457
aS'/workspace/tmp/research/1274888087.16'
p458
aS'/workspace/tmp/research/1274888087.18'
p459
aS'/workspace/tmp/research/1274888087.2'
p460
aS'/workspace/tmp/research/1274888087.22'
p461
aS'/workspace/tmp/research/1274888087.23'
p462
aS'/workspace/tmp/research/1274888087.25'
p463
aS'/workspace/tmp/research/1274888087.26'
p464
aS'/workspace/tmp/research/1274888087.28'
p465
aS'/workspace/tmp/research/1274888087.29'
p466
aS'/workspace/tmp/research/1274888087.31'
p467
aS'/workspace/tmp/research/1274888087.32'
p468
aS'/workspace/tmp/research/1274888087.34'
p469
aS'/workspace/tmp/research/1274888087.35'
p470
aS'/workspace/tmp/research/1274888087.37'
p471
aS'/workspace/tmp/research/1274888087.38'
p472
aS'/workspace/tmp/research/1274888087.4'
p473
aS'/workspace/tmp/research/1274888087.42'
p474
aS'/workspace/tmp/research/1274888087.43'
p475
aS'/workspace/tmp/research/1274888087.45'
p476
aS'/workspace/tmp/research/1274888087.47'
p477
aS'/workspace/tmp/research/1274888087.49'
p478
aS'/workspace/tmp/research/1274888087.51'
p479
aS'/workspace/tmp/research/1274888087.52'
p480
aS'/workspace/tmp/research/1274888087.54'
p481
aS'/workspace/tmp/research/1274888087.55'
p482
aS'/workspace/tmp/research/1274888087.57'
p483
aS'/workspace/tmp/research/1274888087.58'
p484
aS'/workspace/tmp/research/1274888087.6'
p485
aS'/workspace/tmp/research/1274888087.61'
p486
aS'/workspace/tmp/research/1274888087.63'
p487
aS'/workspace/tmp/research/1274888087.65'
p488
aS'/workspace/tmp/research/1274888087.66'
p489
aS'/workspace/tmp/research/1274888087.68'
p490
aS'/workspace/tmp/research/1274888087.7'
p491
aS'/workspace/tmp/research/1274888087.71'
p492
aS'/workspace/tmp/research/1274888087.73'
p493
aS'/workspace/tmp/research/1274888087.74'
p494
aS'/workspace/tmp/research/1274888087.75'
p495
aS'/workspace/tmp/research/1274888087.76'
p496
aS'/workspace/tmp/research/1274888087.78'
p497
aS'/workspace/tmp/research/1274888087.79'
p498
aS'/workspace/tmp/research/1274888087.81'
p499
aS'/workspace/tmp/research/1274888087.82'
p500
aS'/workspace/tmp/research/1274888087.84'
p501
aS'/workspace/tmp/research/1274888087.86'
p502
aS'/workspace/tmp/research/1274888087.88'
p503
aS'/workspace/tmp/research/1274888087.9'
p504
aS'/workspace/tmp/research/1274888087.91'
p505
aS'/workspace/tmp/research/1274888087.92'
p506
aS'/workspace/tmp/research/1274888087.93'
p507
aS'/workspace/tmp/research/1274888087.95'
p508
aS'/workspace/tmp/research/1274888087.97'
p509
aS'/workspace/tmp/research/1274888087.98'
p510
aS'/workspace/tmp/research/1274888088.0'
p511
aS'/workspace/tmp/research/1274888088.01'
p512
aS'/workspace/tmp/research/1274888088.02'
p513
aS'/workspace/tmp/research/1274888088.03'
p514
aS'/workspace/tmp/research/1274888088.05'
p515
aS'/workspace/tmp/research/1274888088.06'
p516
aS'/workspace/tmp/research/1274888088.08'
p517
aS'/workspace/tmp/research/1274888088.09'
p518
aS'/workspace/tmp/research/1274888088.11'
p519
aS'/workspace/tmp/research/1274888088.13'
p520
aS'/workspace/tmp/research/1274888088.15'
p521
aS'/workspace/tmp/research/1274888088.16'
p522
aS'/workspace/tmp/research/1274888088.17'
p523
aS'/workspace/tmp/research/1274888088.19'
p524
aS'/workspace/tmp/research/1274888088.2'
p525
aS'/workspace/tmp/research/1274888088.22'
p526
aS'/workspace/tmp/research/1274888088.23'
p527
aS'/workspace/tmp/research/1274888088.24'
p528
aS'/workspace/tmp/research/1274888088.27'
p529
aS'/workspace/tmp/research/1274888088.28'
p530
aS'/workspace/tmp/research/1274888088.3'
p531
aS'/workspace/tmp/research/1274888088.32'
p532
aS'/workspace/tmp/research/1274888088.33'
p533
aS'/workspace/tmp/research/1274888088.35'
p534
aS'/workspace/tmp/research/1274888088.37'
p535
aS'/workspace/tmp/research/1274888088.39'
p536
aS'/workspace/tmp/research/1274888088.41'
p537
aS'/workspace/tmp/research/1274888088.43'
p538
aS'/workspace/tmp/research/1274888088.44'
p539
aS'/workspace/tmp/research/1274888088.46'
p540
aS'/workspace/tmp/research/1274888088.48'
p541
aS'/workspace/tmp/research/1274888088.5'
p542
aS'/workspace/tmp/research/1274888088.52'
p543
aS'/workspace/tmp/research/1274888088.54'
p544
aS'/workspace/tmp/research/1274888088.56'
p545
aS'/workspace/tmp/research/1274888088.58'
p546
aS'/workspace/tmp/research/1274888088.59'
p547
aS'/workspace/tmp/research/1274888088.6'
p548
aS'/workspace/tmp/research/1274888088.61'
p549
aS'/workspace/tmp/research/1274888088.63'
p550
aS'/workspace/tmp/research/1274888088.65'
p551
aS'/workspace/tmp/research/1274888088.67'
p552
aS'/workspace/tmp/research/1274888088.69'
p553
aS'/workspace/tmp/research/1274888088.71'
p554
aS'/workspace/tmp/research/1274888088.73'
p555
aS'/workspace/tmp/research/1274888088.75'
p556
aS'/workspace/tmp/research/1274888088.77'
p557
aS'/workspace/tmp/research/1274888088.79'
p558
aS'/workspace/tmp/research/1274888088.81'
p559
aS'/workspace/tmp/research/1274888088.82'
p560
aS'/workspace/tmp/research/1274888088.84'
p561
aS'/workspace/tmp/research/1274888088.86'
p562
aS'/workspace/tmp/research/1274888088.87'
p563
aS'/workspace/tmp/research/1274888088.88'
p564
aS'/workspace/tmp/research/1274888088.9'
p565
aS'/workspace/tmp/research/1274888088.91'
p566
aS'/workspace/tmp/research/1274888088.93'
p567
aS'/workspace/tmp/research/1274888088.95'
p568
aS'/workspace/tmp/research/1274888088.97'
p569
aS'/workspace/tmp/research/1274888088.99'
p570
aS'/workspace/tmp/research/1274888089.01'
p571
aS'/workspace/tmp/research/1274888089.02'
p572
aS'/workspace/tmp/research/1274888089.04'
p573
aS'/workspace/tmp/research/1274888089.06'
p574
aS'/workspace/tmp/research/1274888089.08'
p575
aS'/workspace/tmp/research/1274888089.1'
p576
aS'/workspace/tmp/research/1274888089.12'
p577
aS'/workspace/tmp/research/1274888089.14'
p578
aS'/workspace/tmp/research/1274888089.16'
p579
aS'/workspace/tmp/research/1274888089.18'
p580
aS'/workspace/tmp/research/1274888089.2'
p581
aS'/workspace/tmp/research/1274888089.22'
p582
aS'/workspace/tmp/research/1274888089.24'
p583
aS'/workspace/tmp/research/1274888089.25'
p584
aS'/workspace/tmp/research/1274888089.26'
p585
aS'/workspace/tmp/research/1274888089.27'
p586
aS'/workspace/tmp/research/1274888089.29'
p587
aS'/workspace/tmp/research/1274888089.3'
p588
aS'/workspace/tmp/research/1274888089.32'
p589
aS'/workspace/tmp/research/1274888089.33'
p590
aS'/workspace/tmp/research/1274888089.34'
p591
aS'/workspace/tmp/research/1274888089.36'
p592
aS'/workspace/tmp/research/1274888089.38'
p593
aS'/workspace/tmp/research/1274888089.39'
p594
aS'/workspace/tmp/research/1274888089.4'
p595
aS'/workspace/tmp/research/1274888089.41'
p596
aS'/workspace/tmp/research/1274888089.43'
p597
aS'/workspace/tmp/research/1274888089.44'
p598
aS'/workspace/tmp/research/1274888089.46'
p599
aS'/workspace/tmp/research/1274888089.47'
p600
aS'/workspace/tmp/research/1274888089.48'
p601
aS'/workspace/tmp/research/1274888089.5'
p602
aS'/workspace/tmp/research/1274888089.51'
p603
aS'/workspace/tmp/research/1274888089.52'
p604
aS'/workspace/tmp/research/1274888089.54'
p605
aS'/workspace/tmp/research/1274888089.56'
p606
aS'/workspace/tmp/research/1274888089.57'
p607
aS'/workspace/tmp/research/1274888089.58'
p608
aS'/workspace/tmp/research/1274888089.59'
p609
aS'/workspace/tmp/research/1274888089.61'
p610
aS'/workspace/tmp/research/1274888089.62'
p611
aS'/workspace/tmp/research/1274888089.64'
p612
aS'/workspace/tmp/research/1274888089.66'
p613
aS'/workspace/tmp/research/1274888089.67'
p614
aS'/workspace/tmp/research/1274888089.68'
p615
aS'/workspace/tmp/research/1274888089.69'
p616
aS'/workspace/tmp/research/1274888089.71'
p617
aS'/workspace/tmp/research/1274888089.73'
p618
aS'/workspace/tmp/research/1274888089.74'
p619
aS'/workspace/tmp/research/1274888089.75'
p620
aS'/workspace/tmp/research/1274888089.76'
p621
aS'/workspace/tmp/research/1274888089.78'
p622
aS'/workspace/tmp/research/1274888089.79'
p623
aS'/workspace/tmp/research/1274888089.81'
p624
aS'/workspace/tmp/research/1274888089.83'
p625
aS'/workspace/tmp/research/1274888089.85'
p626
aS'/workspace/tmp/research/1274888089.87'
p627
aS'/workspace/tmp/research/1274888089.89'
p628
aS'/workspace/tmp/research/1274888089.9'
p629
aS'/workspace/tmp/research/1274888089.91'
p630
aS'/workspace/tmp/research/1274888089.93'
p631
aS'/workspace/tmp/research/1274888089.94'
p632
aS'/workspace/tmp/research/1274888089.95'
p633
aS'/workspace/tmp/research/1274888089.97'
p634
aS'/workspace/tmp/research/1274888089.98'
p635
aS'/workspace/tmp/research/1274888090.0'
p636
aS'/workspace/tmp/research/1274888090.02'
p637
aS'/workspace/tmp/research/1274888090.04'
p638
aS'/workspace/tmp/research/1274888090.05'
p639
aS'/workspace/tmp/research/1274888090.07'
p640
aS'/workspace/tmp/research/1274888090.09'
p641
aS'/workspace/tmp/research/1274888090.11'
p642
aS'/workspace/tmp/research/1274888090.12'
p643
aS'/workspace/tmp/research/1274888090.13'
p644
aS'/workspace/tmp/research/1274888090.15'
p645
aS'/workspace/tmp/research/1274888090.16'
p646
aS'/workspace/tmp/research/1274888090.17'
p647
aS'/workspace/tmp/research/1274888090.19'
p648
aS'/workspace/tmp/research/1274888090.21'
p649
aS'/workspace/tmp/research/1274888090.23'
p650
aS'/workspace/tmp/research/1274888090.25'
p651
aS'/workspace/tmp/research/1274888090.27'
p652
aS'/workspace/tmp/research/1274888090.29'
p653
aS'/workspace/tmp/research/1274888090.31'
p654
aS'/workspace/tmp/research/1274888090.33'
p655
aS'/workspace/tmp/research/1274888090.35'
p656
aS'/workspace/tmp/research/1274888090.37'
p657
aS'/workspace/tmp/research/1274888090.39'
p658
aS'/workspace/tmp/research/1274888090.41'
p659
aS'/workspace/tmp/research/1274888090.42'
p660
aS'/workspace/tmp/research/1274888090.43'
p661
aS'/workspace/tmp/research/1274888090.44'
p662
aS'/workspace/tmp/research/1274888090.46'
p663
aS'/workspace/tmp/research/1274888090.47'
p664
aS'/workspace/tmp/research/1274888090.49'
p665
aS'/workspace/tmp/research/1274888090.51'
p666
aS'/workspace/tmp/research/1274888090.52'
p667
aS'/workspace/tmp/research/1274888090.54'
p668
aS'/workspace/tmp/research/1274888090.56'
p669
aS'/workspace/tmp/research/1274888090.58'
p670
aS'/workspace/tmp/research/1274888090.6'
p671
aS'/workspace/tmp/research/1274888090.62'
p672
aS'/workspace/tmp/research/1274888090.64'
p673
aS'/workspace/tmp/research/1274888090.66'
p674
aS'/workspace/tmp/research/1274888090.67'
p675
aS'/workspace/tmp/research/1274888090.69'
p676
aS'/workspace/tmp/research/1274888090.7'
p677
aS'/workspace/tmp/research/1274888090.72'
p678
aS'/workspace/tmp/research/1274888090.74'
p679
aS'/workspace/tmp/research/1274888090.75'
p680
aS'/workspace/tmp/research/1274888090.76'
p681
aS'/workspace/tmp/research/1274888090.77'
p682
aS'/workspace/tmp/research/1274888090.79'
p683
aS'/workspace/tmp/research/1274888090.8'
p684
aS'/workspace/tmp/research/1274888090.82'
p685
aS'/workspace/tmp/research/1274888090.84'
p686
aS'/workspace/tmp/research/1274888090.86'
p687
aS'/workspace/tmp/research/1274888090.87'
p688
aS'/workspace/tmp/research/1274888090.88'
p689
aS'/workspace/tmp/research/1274888090.89'
p690
aS'/workspace/tmp/research/1274888090.9'
p691
aS'/workspace/tmp/research/1274888090.92'
p692
aS'/workspace/tmp/research/1274888090.94'
p693
aS'/workspace/tmp/research/1274888090.96'
p694
aS'/workspace/tmp/research/1274888090.98'
p695
aS'/workspace/tmp/research/1274888090.99'
p696
aS'/workspace/tmp/research/1274888091.01'
p697
aS'/workspace/tmp/research/1274888091.03'
p698
aS'/workspace/tmp/research/1274888091.04'
p699
aS'/workspace/tmp/research/1274888091.06'
p700
aS'/workspace/tmp/research/1274888091.08'
p701
aS'/workspace/tmp/research/1274888091.1'
p702
aS'/workspace/tmp/research/1274888091.11'
p703
aS'/workspace/tmp/research/1274888091.12'
p704
aS'/workspace/tmp/research/1274888091.14'
p705
aS'/workspace/tmp/research/1274888091.16'
p706
aS'/workspace/tmp/research/1274888091.18'
p707
aS'/workspace/tmp/research/1274888091.2'
p708
aS'/workspace/tmp/research/1274888091.22'
p709
aS'/workspace/tmp/research/1274888091.24'
p710
aS'/workspace/tmp/research/1274888091.26'
p711
aS'/workspace/tmp/research/1274888091.27'
p712
aS'/workspace/tmp/research/1274888091.29'
p713
aS'/workspace/tmp/research/1274888091.31'
p714
aS'/workspace/tmp/research/1274888091.33'
p715
aS'/workspace/tmp/research/1274888091.35'
p716
aS'/workspace/tmp/research/1274888091.36'
p717
aS'/workspace/tmp/research/1274888091.38'
p718
aS'/workspace/tmp/research/1274888091.4'
p719
aS'/workspace/tmp/research/1274888091.41'
p720
aS'/workspace/tmp/research/1274888091.43'
p721
aS'/workspace/tmp/research/1274888091.45'
p722
aS'/workspace/tmp/research/1274888091.46'
p723
aS'/workspace/tmp/research/1274888091.48'
p724
aS'/workspace/tmp/research/1274888091.5'
p725
aS'/workspace/tmp/research/1274888091.51'
p726
aS'/workspace/tmp/research/1274888091.52'
p727
aS'/workspace/tmp/research/1274888091.54'
p728
aS'/workspace/tmp/research/1274888091.57'
p729
aS'/workspace/tmp/research/1274888091.58'
p730
aS'/workspace/tmp/research/1274888091.59'
p731
aS'/workspace/tmp/research/1274888091.61'
p732
aS'/workspace/tmp/research/1274888091.62'
p733
aS'/workspace/tmp/research/1274888091.63'
p734
aS'/workspace/tmp/research/1274888091.65'
p735
aS'/workspace/tmp/research/1274888091.66'
p736
aS'/workspace/tmp/research/1274888091.68'
p737
aS'/workspace/tmp/research/1274888091.7'
p738
aS'/workspace/tmp/research/1274888091.71'
p739
aS'/workspace/tmp/research/1274888091.73'
p740
aS'/workspace/tmp/research/1274888091.75'
p741
aS'/workspace/tmp/research/1274888091.77'
p742
aS'/workspace/tmp/research/1274888091.79'
p743
aS'/workspace/tmp/research/1274888091.81'
p744
aS'/workspace/tmp/research/1274888091.82'
p745
aS'/workspace/tmp/research/1274888091.84'
p746
aS'/workspace/tmp/research/1274888091.85'
p747
aS'/workspace/tmp/research/1274888091.87'
p748
aS'/workspace/tmp/research/1274888091.88'
p749
aS'/workspace/tmp/research/1274888091.9'
p750
aS'/workspace/tmp/research/1274888091.92'
p751
aS'/workspace/tmp/research/1274888091.94'
p752
aS'/workspace/tmp/research/1274888091.95'
p753
aS'/workspace/tmp/research/1274888091.97'
p754
aS'/workspace/tmp/research/1274888091.99'
p755
aS'/workspace/tmp/research/1274888092.0'
p756
aS'/workspace/tmp/research/1274888092.02'
p757
aS'/workspace/tmp/research/1274888092.04'
p758
aS'/workspace/tmp/research/1274888092.05'
p759
aS'/workspace/tmp/research/1274888092.07'
p760
aS'/workspace/tmp/research/1274888092.08'
p761
aS'/workspace/tmp/research/1274888092.1'
p762
aS'/workspace/tmp/research/1274888092.11'
p763
aS'/workspace/tmp/research/1274888092.13'
p764
aS'/workspace/tmp/research/1274888092.15'
p765
aS'/workspace/tmp/research/1274888092.16'
p766
aS'/workspace/tmp/research/1274888092.18'
p767
aS'/workspace/tmp/research/1274888092.2'
p768
aS'/workspace/tmp/research/1274888092.22'
p769
aS'/workspace/tmp/research/1274888092.23'
p770
aS'/workspace/tmp/research/1274888092.25'
p771
aS'/workspace/tmp/research/1274888092.27'
p772
aS'/workspace/tmp/research/1274888092.28'
p773
aS'/workspace/tmp/research/1274888092.3'
p774
aS'/workspace/tmp/research/1274888092.32'
p775
aS'/workspace/tmp/research/1274888092.34'
p776
aS'/workspace/tmp/research/1274888092.35'
p777
aS'/workspace/tmp/research/1274888092.38'
p778
aS'/workspace/tmp/research/1274888092.4'
p779
aS'/workspace/tmp/research/1274888092.42'
p780
aS'/workspace/tmp/research/1274888092.45'
p781
aS'/workspace/tmp/research/1274888092.47'
p782
aS'/workspace/tmp/research/1274888092.48'
p783
aS'/workspace/tmp/research/1274888092.5'
p784
aS'/workspace/tmp/research/1274888092.52'
p785
aS'/workspace/tmp/research/1274888092.53'
p786
aS'/workspace/tmp/research/1274888092.55'
p787
aS'/workspace/tmp/research/1274888092.57'
p788
aS'/workspace/tmp/research/1274888092.59'
p789
aS'/workspace/tmp/research/1274888092.61'
p790
aS'/workspace/tmp/research/1274888092.62'
p791
aS'/workspace/tmp/research/1274888092.64'
p792
aS'/workspace/tmp/research/1274888092.65'
p793
aS'/workspace/tmp/research/1274888092.67'
p794
aS'/workspace/tmp/research/1274888092.69'
p795
aS'/workspace/tmp/research/1274888092.7'
p796
aS'/workspace/tmp/research/1274888092.71'
p797
aS'/workspace/tmp/research/1274888092.74'
p798
aS'/workspace/tmp/research/1274888092.75'
p799
aS'/workspace/tmp/research/1274888092.77'
p800
aS'/workspace/tmp/research/1274888092.78'
p801
aS'/workspace/tmp/research/1274888092.8'
p802
aS'/workspace/tmp/research/1274888092.82'
p803
aS'/workspace/tmp/research/1274888092.83'
p804
aS'/workspace/tmp/research/1274888092.85'
p805
aS'/workspace/tmp/research/1274888092.87'
p806
aS'/workspace/tmp/research/1274888092.89'
p807
aS'/workspace/tmp/research/1274888092.9'
p808
aS'/workspace/tmp/research/1274888092.92'
p809
aS'/workspace/tmp/research/1274888092.93'
p810
aS'/workspace/tmp/research/1274888092.95'
p811
aS'/workspace/tmp/research/1274888092.97'
p812
aS'/workspace/tmp/research/1274888092.98'
p813
aS'/workspace/tmp/research/1274888093.01'
p814
aS'/workspace/tmp/research/1274888093.02'
p815
aS'/workspace/tmp/research/1274888093.04'
p816
aS'/workspace/tmp/research/1274888093.06'
p817
aS'/workspace/tmp/research/1274888093.07'
p818
aS'/workspace/tmp/research/1274888093.09'
p819
aS'/workspace/tmp/research/1274888093.11'
p820
aS'/workspace/tmp/research/1274888093.12'
p821
aS'/workspace/tmp/research/1274888093.14'
p822
aS'/workspace/tmp/research/1274888093.15'
p823
aS'/workspace/tmp/research/1274888093.18'
p824
aS'/workspace/tmp/research/1274888093.2'
p825
aS'/workspace/tmp/research/1274888093.22'
p826
aS'/workspace/tmp/research/1274888093.24'
p827
aS'/workspace/tmp/research/1274888093.26'
p828
aS'/workspace/tmp/research/1274888093.28'
p829
aS'/workspace/tmp/research/1274888093.3'
p830
aS'/workspace/tmp/research/1274888093.32'
p831
aS'/workspace/tmp/research/1274888093.33'
p832
aS'/workspace/tmp/research/1274888093.35'
p833
aS'/workspace/tmp/research/1274888093.38'
p834
aS'/workspace/tmp/research/1274888093.39'
p835
aS'/workspace/tmp/research/1274888093.41'
p836
aS'/workspace/tmp/research/1274888093.42'
p837
aS'/workspace/tmp/research/1274888093.43'
p838
aS'/workspace/tmp/research/1274888093.44'
p839
aS'/workspace/tmp/research/1274888093.46'
p840
aS'/workspace/tmp/research/1274888093.48'
p841
aS'/workspace/tmp/research/1274888093.49'
p842
aS'/workspace/tmp/research/1274888093.51'
p843
aS'/workspace/tmp/research/1274888093.53'
p844
aS'/workspace/tmp/research/1274888093.54'
p845
aS'/workspace/tmp/research/1274888093.55'
p846
aS'/workspace/tmp/research/1274888093.57'
p847
aS'/workspace/tmp/research/1274888093.58'
p848
aS'/workspace/tmp/research/1274888093.6'
p849
aS'/workspace/tmp/research/1274888093.61'
p850
aS'/workspace/tmp/research/1274888093.63'
p851
aS'/workspace/tmp/research/1274888093.65'
p852
aS'/workspace/tmp/research/1274888093.66'
p853
aS'/workspace/tmp/research/1274888093.67'
p854
aS'/workspace/tmp/research/1274888093.69'
p855
aS'/workspace/tmp/research/1274888093.7'
p856
aS'/workspace/tmp/research/1274888093.71'
p857
aS'/workspace/tmp/research/1274888093.73'
p858
aS'/workspace/tmp/research/1274888093.74'
p859
aS'/workspace/tmp/research/1274888093.76'
p860
aS'/workspace/tmp/research/1274888093.77'
p861
aS'/workspace/tmp/research/1274888093.79'
p862
aS'/workspace/tmp/research/1274888093.81'
p863
aS'/workspace/tmp/research/1274888093.82'
p864
aS'/workspace/tmp/research/1274888093.84'
p865
aS'/workspace/tmp/research/1274888093.85'
p866
aS'/workspace/tmp/research/1274888093.86'
p867
aS'/workspace/tmp/research/1274888093.88'
p868
aS'/workspace/tmp/research/1274888093.89'
p869
aS'/workspace/tmp/research/1274888093.9'
p870
aS'/workspace/tmp/research/1274888093.92'
p871
aS'/workspace/tmp/research/1274888093.93'
p872
aS'/workspace/tmp/research/1274888093.95'
p873
aS'/workspace/tmp/research/1274888093.97'
p874
aS'/workspace/tmp/research/1274888093.98'
p875
aS'/workspace/tmp/research/1274888094.0'
p876
aS'/workspace/tmp/research/1274888094.01'
p877
aS'/workspace/tmp/research/1274888094.03'
p878
aS'/workspace/tmp/research/1274888094.05'
p879
aS'/workspace/tmp/research/1274888094.06'
p880
aS'/workspace/tmp/research/1274888094.08'
p881
aS'/workspace/tmp/research/1274888094.1'
p882
aS'/workspace/tmp/research/1274888094.12'
p883
aS'/workspace/tmp/research/1274888094.13'
p884
aS'/workspace/tmp/research/1274888094.15'
p885
aS'/workspace/tmp/research/1274888094.18'
p886
aS'/workspace/tmp/research/1274888094.2'
p887
aS'/workspace/tmp/research/1274888094.21'
p888
aS'/workspace/tmp/research/1274888094.22'
p889
aS'/workspace/tmp/research/1274888094.24'
p890
aS'/workspace/tmp/research/1274888094.26'
p891
aS'/workspace/tmp/research/1274888094.27'
p892
aS'/workspace/tmp/research/1274888094.29'
p893
aS'/workspace/tmp/research/1274888094.3'
p894
aS'/workspace/tmp/research/1274888094.31'
p895
aS'/workspace/tmp/research/1274888094.33'
p896
aS'/workspace/tmp/research/1274888094.34'
p897
aS'/workspace/tmp/research/1274888094.35'
p898
aS'/workspace/tmp/research/1274888094.37'
p899
aS'/workspace/tmp/research/1274888094.39'
p900
aS'/workspace/tmp/research/1274888094.41'
p901
aS'/workspace/tmp/research/1274888094.42'
p902
aS'/workspace/tmp/research/1274888094.43'
p903
aS'/workspace/tmp/research/1274888094.45'
p904
aS'/workspace/tmp/research/1274888094.46'
p905
aS'/workspace/tmp/research/1274888094.47'
p906
aS'/workspace/tmp/research/1274888094.49'
p907
aS'/workspace/tmp/research/1274888094.5'
p908
aS'/workspace/tmp/research/1274888094.52'
p909
aS'/workspace/tmp/research/1274888094.53'
p910
aS'/workspace/tmp/research/1274888094.55'
p911
aS'/workspace/tmp/research/1274888094.57'
p912
aS'/workspace/tmp/research/1274888094.59'
p913
aS'/workspace/tmp/research/1274888094.61'
p914
aS'/workspace/tmp/research/1274888094.62'
p915
aS'/workspace/tmp/research/1274888094.64'
p916
aS'/workspace/tmp/research/1274888094.65'
p917
aS'/workspace/tmp/research/1274888094.66'
p918
aS'/workspace/tmp/research/1274888094.68'
p919
aS'/workspace/tmp/research/1274888094.7'
p920
aS'/workspace/tmp/research/1274888094.71'
p921
aS'/workspace/tmp/research/1274888094.72'
p922
aS'/workspace/tmp/research/1274888094.74'
p923
aS'/workspace/tmp/research/1274888094.75'
p924
aS'/workspace/tmp/research/1274888094.76'
p925
aS'/workspace/tmp/research/1274888094.78'
p926
aS'/workspace/tmp/research/1274888094.79'
p927
aS'/workspace/tmp/research/1274888094.8'
p928
aS'/workspace/tmp/research/1274888094.82'
p929
aS'/workspace/tmp/research/1274888094.84'
p930
aS'/workspace/tmp/research/1274888094.86'
p931
aS'/workspace/tmp/research/1274888094.88'
p932
aS'/workspace/tmp/research/1274888094.9'
p933
aS'/workspace/tmp/research/1274888094.92'
p934
aS'/workspace/tmp/research/1274888094.94'
p935
aS'/workspace/tmp/research/1274888094.96'
p936
aS'/workspace/tmp/research/1274888094.98'
p937
aS'/workspace/tmp/research/1274888095.0'
p938
aS'/workspace/tmp/research/1274888095.02'
p939
aS'/workspace/tmp/research/1274888095.04'
p940
aS'/workspace/tmp/research/1274888095.05'
p941
aS'/workspace/tmp/research/1274888095.07'
p942
aS'/workspace/tmp/research/1274888095.09'
p943
aS'/workspace/tmp/research/1274888095.11'
p944
aS'/workspace/tmp/research/1274888095.13'
p945
aS'/workspace/tmp/research/1274888095.15'
p946
aS'/workspace/tmp/research/1274888095.16'
p947
aS'/workspace/tmp/research/1274888095.17'
p948
aS'/workspace/tmp/research/1274888095.18'
p949
aS'/workspace/tmp/research/1274888095.2'
p950
aS'/workspace/tmp/research/1274888095.21'
p951
aS'/workspace/tmp/research/1274888095.23'
p952
aS'/workspace/tmp/research/1274888095.24'
p953
aS'/workspace/tmp/research/1274888095.25'
p954
aS'/workspace/tmp/research/1274888095.26'
p955
aS'/workspace/tmp/research/1274888095.28'
p956
aS'/workspace/tmp/research/1274888095.29'
p957
aS'/workspace/tmp/research/1274888095.31'
p958
aS'/workspace/tmp/research/1274888095.33'
p959
aS'/workspace/tmp/research/1274888095.34'
p960
aS'/workspace/tmp/research/1274888095.35'
p961
aS'/workspace/tmp/research/1274888095.36'
p962
aS'/workspace/tmp/research/1274888095.38'
p963
aS'/workspace/tmp/research/1274888095.4'
p964
aS'/workspace/tmp/research/1274888095.42'
p965
aS'/workspace/tmp/research/1274888095.44'
p966
aS'/workspace/tmp/research/1274888095.46'
p967
aS'/workspace/tmp/research/1274888095.47'
p968
aS'/workspace/tmp/research/1274888095.49'
p969
aS'/workspace/tmp/research/1274888095.5'
p970
aS'/workspace/tmp/research/1274888095.51'
p971
aS'/workspace/tmp/research/1274888095.52'
p972
aS'/workspace/tmp/research/1274888095.53'
p973
aS'/workspace/tmp/research/1274888095.55'
p974
aS'/workspace/tmp/research/1274888095.56'
p975
aS'/workspace/tmp/research/1274888095.58'
p976
aS'/workspace/tmp/research/1274888095.6'
p977
aS'/workspace/tmp/research/1274888095.61'
p978
aS'/workspace/tmp/research/1274888095.63'
p979
aS'/workspace/tmp/research/1274888095.65'
p980
aS'/workspace/tmp/research/1274888095.67'
p981
aS'/workspace/tmp/research/1274888095.69'
p982
aS'/workspace/tmp/research/1274888095.71'
p983
aS'/workspace/tmp/research/1274888095.72'
p984
aS'/workspace/tmp/research/1274888095.73'
p985
aS'/workspace/tmp/research/1274888095.74'
p986
aS'/workspace/tmp/research/1274888095.76'
p987
aS'/workspace/tmp/research/1274888095.77'
p988
aS'/workspace/tmp/research/1274888095.79'
p989
aS'/workspace/tmp/research/1274888095.81'
p990
aS'/workspace/tmp/research/1274888095.83'
p991
aS'/workspace/tmp/research/1274888095.85'
p992
aS'/workspace/tmp/research/1274888095.86'
p993
aS'/workspace/tmp/research/1274888095.88'
p994
aS'/workspace/tmp/research/1274888095.9'
p995
aS'/workspace/tmp/research/1274888095.91'
p996
aS'/workspace/tmp/research/1274888095.92'
p997
aS'/workspace/tmp/research/1274888095.93'
p998
aS'/workspace/tmp/research/1274888095.95'
p999
aS'/workspace/tmp/research/1274888095.96'
p1000
aS'/workspace/tmp/research/1274888095.98'
p1001
aS'/workspace/tmp/research/1274888096.0'
p1002
aS'/workspace/tmp/research/1274888096.01'
p1003
aS'/workspace/tmp/research/1274888096.03'
p1004
as.